; Function Attrs: mustprogress nofree norecurse nosync nounwind willreturn memory(argmem: readwrite) uwtable
define hidden void @_ZNK19OpenColorIO_v2_5dev19MatrixTransformImpl9getOffsetEPd(ptr noundef nonnull readonly align 8 captures(none) dereferenceable(272) %0, ptr noundef writeonly %1) unnamed_addr #18 align 2 {
  %.not.i = icmp eq ptr %1, null
  br i1 %.not.i, label %_ZN19OpenColorIO_v2_5dev9GetOffsetIdEEvPKdPT_.exit, label %3

3:                                                ; preds = %2
  %4 = getelementptr inbounds nuw i8, ptr %0, i64 224
  %5 = load double, ptr %4, align 8, !tbaa !67
  store double %5, ptr %1, align 8, !tbaa !67
  %6 = getelementptr inbounds nuw i8, ptr %0, i64 232
  %7 = load double, ptr %6, align 8, !tbaa !67
  %8 = getelementptr inbounds nuw i8, ptr %1, i64 8
  store double %7, ptr %8, align 8, !tbaa !67
  %9 = getelementptr inbounds nuw i8, ptr %0, i64 240
  %10 = load double, ptr %9, align 8, !tbaa !67
  %11 = getelementptr inbounds nuw i8, ptr %1, i64 16
  store double %10, ptr %11, align 8, !tbaa !67
  %12 = getelementptr inbounds nuw i8, ptr %0, i64 248
  %13 = load double, ptr %12, align 8, !tbaa !67
  %14 = getelementptr inbounds nuw i8, ptr %1, i64 24
  store double %13, ptr %14, align 8, !tbaa !67
  br label %_ZN19OpenColorIO_v2_5dev9GetOffsetIdEEvPKdPT_.exit

_ZN19OpenColorIO_v2_5dev9GetOffsetIdEEvPKdPT_.exit: ; preds = %2, %3
  ret void
}